; Function Attrs: mustprogress uwtable
define void @_ZN15RtpStreamDialog13tapMarkPacketEP18_rtpstream_tapinfoP11_frame_data(ptr noundef readonly %0, ptr noundef %1) #0 align 2 {
  %.not = icmp eq ptr %0, null
  br i1 %.not, label %14, label %3

3:                                                ; preds = %2
  %4 = getelementptr inbounds i8, ptr %0, i64 24
  %5 = load ptr, ptr %4, align 8
  %.not7 = icmp eq ptr %5, null
  br i1 %.not7, label %14, label %6

6:                                                ; preds = %3
  %7 = getelementptr inbounds i8, ptr %5, i64 64
  %8 = load ptr, ptr %7, align 8
  %9 = tail call noundef zeroext i1 @_ZNK11CaptureFile7isValidEv(ptr noundef nonnull align 8 dereferenceable(48) %8)
  %10 = getelementptr inbounds i8, ptr %8, i64 16
  %11 = load ptr, ptr %10, align 8
  %12 = select i1 %9, ptr %11, ptr null
  tail call void @cf_mark_frame(ptr noundef %12, ptr noundef %1)
  %13 = getelementptr inbounds i8, ptr %5, i64 328
  store i8 1, ptr %13, align 8
  br label %14

14:                                               ; preds = %2, %6, %3
  ret void
}